target datalayout = "e-m:e-p270:32:32-p271:32:32-p272:64:64-i64:64-i128:128-f80:128-n8:16:32:64-S128"
target triple = "x86_64-pc-linux-gnu"

%struct.crypto_ex_data_st = type { ptr }
%struct.ssl_st = type { i32, i16, i16, ptr, ptr, ptr, ptr, ptr, i32, i32, ptr, ptr, i32, i32, ptr, ptr, ptr, ptr, ptr, ptr, ptr, ptr, i32, i32, [32 x i8], ptr, ptr, ptr, ptr, ptr, ptr, ptr, i64, %struct.crypto_ex_data_st, ptr, i32, i32, i32, i32, i16, ptr, i32, i64, ptr, ptr, ptr, ptr, ptr, ptr, i32, i32, ptr, ptr, i8, i8, i32 }
%struct.ssl_protocol_method_st = type { i8, ptr, ptr, ptr, ptr, ptr, ptr, ptr, ptr, ptr, ptr, ptr, i32, ptr, ptr }
%struct.ssl3_state_st = type { [8 x i8], [8 x i8], [32 x i8], [32 x i8], i8, i8, %struct.ssl3_buffer_st, %struct.ssl3_buffer_st, %struct.ssl3_record_st, i8, i32, i32, i32, i32, ptr, ptr, %struct.env_md_ctx_st, %struct.env_md_ctx_st, i8, i32, [2 x i8], i32, i8, i8, ptr, ptr, ptr, %struct.anon, [64 x i8], i8, [64 x i8], i8, i32, i32, ptr, i64, ptr, i64, i8, [64 x i8] }
%struct.ssl3_buffer_st = type { ptr, i16, i16, i16 }
%struct.ssl3_record_st = type { i8, i16, ptr }
%struct.env_md_ctx_st = type { ptr, ptr, ptr, ptr }
%struct.anon = type { [64 x i8], i32, [64 x i8], i32, i64, i32, ptr, i32, i32, %union.anon, %union.anon.0, i8, i32, ptr, ptr, i64, ptr, i8, i8, i8, i8, i32, i8, ptr, i64, i8, ptr, i8, i8, i8, %struct.ssl_ecdh_ctx_st, ptr, i16 }
%union.anon = type { i32 }
%union.anon.0 = type { i16 }
%struct.ssl_ecdh_ctx_st = type { ptr, ptr }
%struct.ssl_cipher_st = type { ptr, i32, i32, i32, i32, i32, i32 }
%struct.ssl_aead_ctx_st = type { ptr, %struct.evp_aead_ctx_st, [12 x i8], i8, i8, i8, i8, i8, i8, i8 }
%struct.evp_aead_ctx_st = type { ptr, ptr }

; Function Attrs: nounwind uwtable
define hidden i32 @SSL_version(ptr noundef %0) #0 {
  %2 = alloca ptr, align 8
  store ptr %0, ptr %2, align 8, !tbaa !80
  %3 = load ptr, ptr %2, align 8, !tbaa !80
  %4 = getelementptr inbounds nuw %struct.ssl_st, ptr %3, i32 0, i32 0
  %5 = load i32, ptr %4, align 8, !tbaa !178
  ret i32 %5
}

; Function Attrs: nounwind uwtable
define hidden ptr @SSL_get_current_cipher(ptr noundef %0) #0 {
  %2 = alloca ptr, align 8
  %3 = alloca ptr, align 8
  store ptr %0, ptr %3, align 8, !tbaa !80
  %4 = load ptr, ptr %3, align 8, !tbaa !80
  %5 = getelementptr inbounds nuw %struct.ssl_st, ptr %4, i32 0, i32 14
  %6 = load ptr, ptr %5, align 8, !tbaa !152
  %7 = getelementptr inbounds nuw %struct.ssl3_state_st, ptr %6, i32 0, i32 25
  %8 = load ptr, ptr %7, align 8, !tbaa !252
  %9 = icmp eq ptr %8, null
  br i1 %9, label %10, label %11

10:                                               ; preds = %1
  store ptr null, ptr %2, align 8
  br label %19

11:                                               ; preds = %1
  %12 = load ptr, ptr %3, align 8, !tbaa !80
  %13 = getelementptr inbounds nuw %struct.ssl_st, ptr %12, i32 0, i32 14
  %14 = load ptr, ptr %13, align 8, !tbaa !152
  %15 = getelementptr inbounds nuw %struct.ssl3_state_st, ptr %14, i32 0, i32 25
  %16 = load ptr, ptr %15, align 8, !tbaa !252
  %17 = getelementptr inbounds nuw %struct.ssl_aead_ctx_st, ptr %16, i32 0, i32 0
  %18 = load ptr, ptr %17, align 8, !tbaa !253
  store ptr %18, ptr %2, align 8
  br label %19

19:                                               ; preds = %11, %10
  %20 = load ptr, ptr %2, align 8
  ret ptr %20
}

; Function Attrs: nounwind uwtable
define hidden i32 @ssl3_can_false_start(ptr noundef %0) #0 {
  %2 = alloca ptr, align 8
  %3 = alloca ptr, align 8
  store ptr %0, ptr %2, align 8, !tbaa !80
  call void @llvm.lifetime.start.p0(i64 8, ptr %3) #8
  %4 = load ptr, ptr %2, align 8, !tbaa !80
  %5 = call ptr @SSL_get_current_cipher(ptr noundef %4)
  store ptr %5, ptr %3, align 8, !tbaa !202
  %6 = load ptr, ptr %2, align 8, !tbaa !80
  %7 = getelementptr inbounds nuw %struct.ssl_st, ptr %6, i32 0, i32 3
  %8 = load ptr, ptr %7, align 8, !tbaa !117
  %9 = getelementptr inbounds nuw %struct.ssl_protocol_method_st, ptr %8, i32 0, i32 0
  %10 = load i8, ptr %9, align 8, !tbaa !192
  %11 = icmp ne i8 %10, 0
  br i1 %11, label %45, label %12

12:                                               ; preds = %1
  %13 = load ptr, ptr %2, align 8, !tbaa !80
  %14 = call i32 @SSL_version(ptr noundef %13)
  %15 = icmp sge i32 %14, 771
  br i1 %15, label %16, label %45

16:                                               ; preds = %12
  %17 = load ptr, ptr %2, align 8, !tbaa !80
  %18 = getelementptr inbounds nuw %struct.ssl_st, ptr %17, i32 0, i32 14
  %19 = load ptr, ptr %18, align 8, !tbaa !152
  %20 = getelementptr inbounds nuw %struct.ssl3_state_st, ptr %19, i32 0, i32 36
  %21 = load ptr, ptr %20, align 8, !tbaa !229
  %22 = icmp ne ptr %21, null
  br i1 %22, label %30, label %23

23:                                               ; preds = %16
  %24 = load ptr, ptr %2, align 8, !tbaa !80
  %25 = getelementptr inbounds nuw %struct.ssl_st, ptr %24, i32 0, i32 14
  %26 = load ptr, ptr %25, align 8, !tbaa !152
  %27 = getelementptr inbounds nuw %struct.ssl3_state_st, ptr %26, i32 0, i32 33
  %28 = load i32, ptr %27, align 8, !tbaa !266
  %29 = icmp ne i32 %28, 0
  br i1 %29, label %30, label %45

30:                                               ; preds = %23, %16
  %31 = load ptr, ptr %3, align 8, !tbaa !202
  %32 = icmp ne ptr %31, null
  br i1 %32, label %33, label %45

33:                                               ; preds = %30
  %34 = load ptr, ptr %3, align 8, !tbaa !202
  %35 = getelementptr inbounds nuw %struct.ssl_cipher_st, ptr %34, i32 0, i32 2
  %36 = load i32, ptr %35, align 4, !tbaa !267
  %37 = zext i32 %36 to i64
  %38 = icmp eq i64 %37, 4
  br i1 %38, label %39, label %45

39:                                               ; preds = %33
  %40 = load ptr, ptr %3, align 8, !tbaa !202
  %41 = getelementptr inbounds nuw %struct.ssl_cipher_st, ptr %40, i32 0, i32 5
  %42 = load i32, ptr %41, align 8, !tbaa !268
  %43 = zext i32 %42 to i64
  %44 = icmp eq i64 %43, 16
  br label %45

45:                                               ; preds = %39, %33, %30, %23, %12, %1
  %46 = phi i1 [ false, %33 ], [ false, %30 ], [ false, %23 ], [ false, %12 ], [ false, %1 ], [ %44, %39 ]
  %47 = zext i1 %46 to i32
  call void @llvm.lifetime.end.p0(i64 8, ptr %3) #8
  ret i32 %47
}