; Function Attrs: mustprogress nofree norecurse nosync nounwind willreturn memory(read, inaccessiblemem: none) uwtable
define hidden range(i32 0, 2) i32 @ssl3_can_false_start(ptr noundef readonly captures(none) %0) local_unnamed_addr #10 {
  %2 = getelementptr inbounds nuw i8, ptr %0, i64 80
  %3 = load ptr, ptr %2, align 8, !tbaa !136
  %4 = getelementptr inbounds nuw i8, ptr %3, i64 272
  %5 = load ptr, ptr %4, align 8, !tbaa !227
  %6 = icmp eq ptr %5, null
  br i1 %6, label %SSL_get_current_cipher.exit, label %7

7:                                                ; preds = %1
  %8 = load ptr, ptr %5, align 8, !tbaa !228
  br label %SSL_get_current_cipher.exit

SSL_get_current_cipher.exit:                      ; preds = %1, %7
  %.0.i = phi ptr [ %8, %7 ], [ null, %1 ]
  %9 = getelementptr inbounds nuw i8, ptr %0, i64 8
  %10 = load ptr, ptr %9, align 8, !tbaa !106
  %11 = load i8, ptr %10, align 8, !tbaa !174
  %.not = icmp eq i8 %11, 0
  br i1 %.not, label %12, label %33

12:                                               ; preds = %SSL_get_current_cipher.exit
  %13 = load i32, ptr %0, align 8, !tbaa !159
  %14 = icmp sgt i32 %13, 770
  br i1 %14, label %15, label %33

15:                                               ; preds = %12
  %16 = getelementptr inbounds nuw i8, ptr %3, i64 752
  %17 = load ptr, ptr %16, align 8, !tbaa !206
  %.not9 = icmp eq ptr %17, null
  br i1 %.not9, label %18, label %23

18:                                               ; preds = %15
  %19 = getelementptr inbounds nuw i8, ptr %3, i64 728
  %20 = load i32, ptr %19, align 8, !tbaa !236
  %21 = icmp ne i32 %20, 0
  %22 = icmp ne ptr %.0.i, null
  %or.cond = select i1 %21, i1 %22, i1 false
  br i1 %or.cond, label %24, label %33

23:                                               ; preds = %15
  %.old1.not = icmp eq ptr %.0.i, null
  br i1 %.old1.not, label %33, label %24

24:                                               ; preds = %18, %23
  %25 = getelementptr inbounds nuw i8, ptr %.0.i, i64 12
  %26 = load i32, ptr %25, align 4, !tbaa !237
  %27 = icmp eq i32 %26, 4
  br i1 %27, label %28, label %33

28:                                               ; preds = %24
  %29 = getelementptr inbounds nuw i8, ptr %.0.i, i64 24
  %30 = load i32, ptr %29, align 8, !tbaa !238
  %31 = icmp eq i32 %30, 16
  %32 = zext i1 %31 to i32
  br label %33

33:                                               ; preds = %28, %24, %23, %18, %12, %SSL_get_current_cipher.exit
  %34 = phi i32 [ 0, %24 ], [ 0, %23 ], [ 0, %18 ], [ 0, %12 ], [ 0, %SSL_get_current_cipher.exit ], [ %32, %28 ]
  ret i32 %34
}